; Function Attrs: nounwind uwtable
define dso_local range(i32 -1, 2) i32 @hllSparseAdd(ptr noundef captures(none) %0, ptr noundef captures(address) %1, i64 noundef %2) local_unnamed_addr #5 {
  %4 = alloca i64, align 8
  call void @llvm.lifetime.start.p0(i64 8, ptr nonnull %4) #20
  %5 = call i32 @hllPatLen(ptr noundef %1, i64 noundef %2, ptr noundef nonnull %4)
  %6 = trunc nuw nsw i32 %5 to i8
  %7 = load i64, ptr %4, align 8, !tbaa !5
  %8 = tail call i32 @hllSparseSet(ptr noundef %0, i64 noundef %7, i8 noundef zeroext %6)
  call void @llvm.lifetime.end.p0(i64 8, ptr nonnull %4) #20
  ret i32 %8
}